; ModuleID = '5/1027.c'
source_filename = "5/1027.c"
target datalayout = "e-m:e-p270:32:32-p271:32:32-p272:64:64-i64:64-f80:128-n8:16:32:64-S128"
target triple = "x86_64-pc-linux-gnu"

@.str = private unnamed_addr constant [8 x i8] c"%lf%s%s\00", align 1
@.str.1 = private unnamed_addr constant [7 x i8] c"error\0A\00", align 1
@.str.2 = private unnamed_addr constant [5 x i8] c"yes\0A\00", align 1
@.str.3 = private unnamed_addr constant [4 x i8] c"no\0A\00", align 1

; Function Attrs: noinline nounwind uwtable
define dso_local i32 @main() #0 {
  %1 = alloca i32, align 4
  %2 = alloca i32, align 4
  %3 = alloca i32, align 4
  %4 = alloca i32, align 4
  %5 = alloca double, align 8
  %6 = alloca double, align 8
  %7 = alloca [512 x i8], align 16
  %8 = alloca [512 x i8], align 16
  store i32 0, i32* %1, align 4
  store i32 0, i32* %3, align 4
  store i32 1, i32* %4, align 4
  %9 = getelementptr inbounds [512 x i8], [512 x i8]* %7, i64 0, i64 0
  %10 = getelementptr inbounds [512 x i8], [512 x i8]* %8, i64 0, i64 0
  %11 = call i32 (i8*, ...) @__isoc99_scanf(i8* getelementptr inbounds ([8 x i8], [8 x i8]* @.str, i64 0, i64 0), double* %6, i8* %9, i8* %10)
  %12 = getelementptr inbounds [512 x i8], [512 x i8]* %7, i64 0, i64 0
  %13 = call i64 @strlen(i8* %12) #3
  %14 = getelementptr inbounds [512 x i8], [512 x i8]* %8, i64 0, i64 0
  %15 = call i64 @strlen(i8* %14) #3
  %16 = icmp ne i64 %13, %15
  br i1 %16, label %17, label %19

17:                                               ; preds = %0
  %18 = call i32 (i8*, ...) @printf(i8* getelementptr inbounds ([7 x i8], [7 x i8]* @.str.1, i64 0, i64 0))
  br label %149

19:                                               ; preds = %0
  store i32 0, i32* %2, align 4
  br label %20

20:                                               ; preds = %57, %19
  %21 = load i32, i32* %2, align 4
  %22 = sext i32 %21 to i64
  %23 = getelementptr inbounds [512 x i8], [512 x i8]* %7, i64 0, i64 %22
  %24 = load i8, i8* %23, align 1
  %25 = sext i8 %24 to i32
  %26 = icmp ne i32 %25, 0
  br i1 %26, label %27, label %60

27:                                               ; preds = %20
  %28 = load i32, i32* %2, align 4
  %29 = sext i32 %28 to i64
  %30 = getelementptr inbounds [512 x i8], [512 x i8]* %7, i64 0, i64 %29
  %31 = load i8, i8* %30, align 1
  %32 = sext i8 %31 to i32
  %33 = icmp ne i32 %32, 65
  br i1 %33, label %34, label %56

34:                                               ; preds = %27
  %35 = load i32, i32* %2, align 4
  %36 = sext i32 %35 to i64
  %37 = getelementptr inbounds [512 x i8], [512 x i8]* %7, i64 0, i64 %36
  %38 = load i8, i8* %37, align 1
  %39 = sext i8 %38 to i32
  %40 = icmp ne i32 %39, 84
  br i1 %40, label %41, label %56

41:                                               ; preds = %34
  %42 = load i32, i32* %2, align 4
  %43 = sext i32 %42 to i64
  %44 = getelementptr inbounds [512 x i8], [512 x i8]* %7, i64 0, i64 %43
  %45 = load i8, i8* %44, align 1
  %46 = sext i8 %45 to i32
  %47 = icmp ne i32 %46, 71
  br i1 %47, label %48, label %56

48:                                               ; preds = %41
  %49 = load i32, i32* %2, align 4
  %50 = sext i32 %49 to i64
  %51 = getelementptr inbounds [512 x i8], [512 x i8]* %7, i64 0, i64 %50
  %52 = load i8, i8* %51, align 1
  %53 = sext i8 %52 to i32
  %54 = icmp ne i32 %53, 67
  br i1 %54, label %55, label %56

55:                                               ; preds = %48
  store i32 0, i32* %4, align 4
  br label %56

56:                                               ; preds = %55, %48, %41, %34, %27
  br label %57

57:                                               ; preds = %56
  %58 = load i32, i32* %2, align 4
  %59 = add nsw i32 %58, 1
  store i32 %59, i32* %2, align 4
  br label %20

60:                                               ; preds = %20
  store i32 0, i32* %2, align 4
  br label %61

61:                                               ; preds = %98, %60
  %62 = load i32, i32* %2, align 4
  %63 = sext i32 %62 to i64
  %64 = getelementptr inbounds [512 x i8], [512 x i8]* %8, i64 0, i64 %63
  %65 = load i8, i8* %64, align 1
  %66 = sext i8 %65 to i32
  %67 = icmp ne i32 %66, 0
  br i1 %67, label %68, label %101

68:                                               ; preds = %61
  %69 = load i32, i32* %2, align 4
  %70 = sext i32 %69 to i64
  %71 = getelementptr inbounds [512 x i8], [512 x i8]* %8, i64 0, i64 %70
  %72 = load i8, i8* %71, align 1
  %73 = sext i8 %72 to i32
  %74 = icmp ne i32 %73, 65
  br i1 %74, label %75, label %97

75:                                               ; preds = %68
  %76 = load i32, i32* %2, align 4
  %77 = sext i32 %76 to i64
  %78 = getelementptr inbounds [512 x i8], [512 x i8]* %8, i64 0, i64 %77
  %79 = load i8, i8* %78, align 1
  %80 = sext i8 %79 to i32
  %81 = icmp ne i32 %80, 84
  br i1 %81, label %82, label %97

82:                                               ; preds = %75
  %83 = load i32, i32* %2, align 4
  %84 = sext i32 %83 to i64
  %85 = getelementptr inbounds [512 x i8], [512 x i8]* %8, i64 0, i64 %84
  %86 = load i8, i8* %85, align 1
  %87 = sext i8 %86 to i32
  %88 = icmp ne i32 %87, 71
  br i1 %88, label %89, label %97

89:                                               ; preds = %82
  %90 = load i32, i32* %2, align 4
  %91 = sext i32 %90 to i64
  %92 = getelementptr inbounds [512 x i8], [512 x i8]* %8, i64 0, i64 %91
  %93 = load i8, i8* %92, align 1
  %94 = sext i8 %93 to i32
  %95 = icmp ne i32 %94, 67
  br i1 %95, label %96, label %97

96:                                               ; preds = %89
  store i32 0, i32* %4, align 4
  br label %97

97:                                               ; preds = %96, %89, %82, %75, %68
  br label %98

98:                                               ; preds = %97
  %99 = load i32, i32* %2, align 4
  %100 = add nsw i32 %99, 1
  store i32 %100, i32* %2, align 4
  br label %61

101:                                              ; preds = %61
  %102 = load i32, i32* %4, align 4
  %103 = icmp ne i32 %102, 0
  br i1 %103, label %104, label %146

104:                                              ; preds = %101
  store i32 0, i32* %2, align 4
  br label %105

105:                                              ; preds = %128, %104
  %106 = load i32, i32* %2, align 4
  %107 = sext i32 %106 to i64
  %108 = getelementptr inbounds [512 x i8], [512 x i8]* %7, i64 0, i64 %107
  %109 = load i8, i8* %108, align 1
  %110 = sext i8 %109 to i32
  %111 = icmp ne i32 %110, 0
  br i1 %111, label %112, label %131

112:                                              ; preds = %105
  %113 = load i32, i32* %2, align 4
  %114 = sext i32 %113 to i64
  %115 = getelementptr inbounds [512 x i8], [512 x i8]* %7, i64 0, i64 %114
  %116 = load i8, i8* %115, align 1
  %117 = sext i8 %116 to i32
  %118 = load i32, i32* %2, align 4
  %119 = sext i32 %118 to i64
  %120 = getelementptr inbounds [512 x i8], [512 x i8]* %8, i64 0, i64 %119
  %121 = load i8, i8* %120, align 1
  %122 = sext i8 %121 to i32
  %123 = icmp eq i32 %117, %122
  br i1 %123, label %124, label %127

124:                                              ; preds = %112
  %125 = load i32, i32* %3, align 4
  %126 = add nsw i32 %125, 1
  store i32 %126, i32* %3, align 4
  br label %127

127:                                              ; preds = %124, %112
  br label %128

128:                                              ; preds = %127
  %129 = load i32, i32* %2, align 4
  %130 = add nsw i32 %129, 1
  store i32 %130, i32* %2, align 4
  br label %105

131:                                              ; preds = %105
  %132 = load i32, i32* %3, align 4
  %133 = sitofp i32 %132 to double
  %134 = getelementptr inbounds [512 x i8], [512 x i8]* %7, i64 0, i64 0
  %135 = call i64 @strlen(i8* %134) #3
  %136 = uitofp i64 %135 to double
  %137 = fdiv double %133, %136
  store double %137, double* %5, align 8
  %138 = load double, double* %5, align 8
  %139 = load double, double* %6, align 8
  %140 = fcmp ogt double %138, %139
  br i1 %140, label %141, label %143

141:                                              ; preds = %131
  %142 = call i32 (i8*, ...) @printf(i8* getelementptr inbounds ([5 x i8], [5 x i8]* @.str.2, i64 0, i64 0))
  br label %145

143:                                              ; preds = %131
  %144 = call i32 (i8*, ...) @printf(i8* getelementptr inbounds ([4 x i8], [4 x i8]* @.str.3, i64 0, i64 0))
  br label %145

145:                                              ; preds = %143, %141
  br label %148

146:                                              ; preds = %101
  %147 = call i32 (i8*, ...) @printf(i8* getelementptr inbounds ([7 x i8], [7 x i8]* @.str.1, i64 0, i64 0))
  br label %148

148:                                              ; preds = %146, %145
  br label %149

149:                                              ; preds = %148, %17
  ret i32 0
}

declare dso_local i32 @__isoc99_scanf(i8*, ...) #1

; Function Attrs: nounwind readonly
declare dso_local i64 @strlen(i8*) #2

declare dso_local i32 @printf(i8*, ...) #1


!llvm.module.flags = !{!0}
!llvm.ident = !{!1}

!0 = !{i32 1, !"wchar_size", i32 4}
!1 = !{!"clang version 10.0.0-4ubuntu1 "}
